; Function Attrs: mustprogress nounwind uwtable
define hidden void @_ZN16SATBMarkQueueSet22set_active_all_threadsEbb(ptr noundef nonnull align 8 dereferenceable(393) %0, i1 noundef zeroext %1, i1 noundef zeroext %2) local_unnamed_addr #0 align 2 {
  %4 = alloca %class.SetThreadActiveClosure, align 8
  %5 = zext i1 %1 to i8
  %6 = load ptr, ptr @NonJavaThreadsList_lock, align 8
  %.not.i.i = icmp eq ptr %6, null
  br i1 %.not.i.i, label %_ZN11MutexLockerC2EP5MutexNS0_18SafepointCheckFlagE.exit.thread, label %8

_ZN11MutexLockerC2EP5MutexNS0_18SafepointCheckFlagE.exit.thread: ; preds = %3
  %7 = getelementptr inbounds i8, ptr %0, i64 296
  store i8 %5, ptr %7, align 8
  br label %_ZN11MutexLockerD2Ev.exit

8:                                                ; preds = %3
  tail call void @_ZN5Mutex28lock_without_safepoint_checkEv(ptr noundef nonnull align 8 dereferenceable(104) %6) #10
  %9 = getelementptr inbounds i8, ptr %0, i64 296
  store i8 %5, ptr %9, align 8
  tail call void @_ZN5Mutex6unlockEv(ptr noundef nonnull align 8 dereferenceable(104) %6) #10
  br label %_ZN11MutexLockerD2Ev.exit

_ZN11MutexLockerD2Ev.exit:                        ; preds = %_ZN11MutexLockerC2EP5MutexNS0_18SafepointCheckFlagE.exit.thread, %8
  store ptr getelementptr inbounds inrange(-16, 8) (i8, ptr @_ZTVZN16SATBMarkQueueSet22set_active_all_threadsEbbE22SetThreadActiveClosure, i64 16), ptr %4, align 8
  %10 = getelementptr inbounds i8, ptr %4, i64 8
  store ptr %0, ptr %10, align 8
  %11 = getelementptr inbounds i8, ptr %4, i64 16
  store i8 %5, ptr %11, align 8
  call void @_ZN7Threads10threads_doEP13ThreadClosure(ptr noundef nonnull %4) #10
  ret void
}